(dp0
Vengine
p1
S'pdflatex'
p2
sVpackages
p3
c__builtin__
set
p4
((lp5
Vbooktabs
p6
aVamsmath
p7
aVtextpos
p8
aVcaption
p9
aVepstopdf
p10
aVgraphicx
p11
aVamssymb
p12
atp13
Rp14
sVfiles_with_guttermarks
p15
g4
((lp16
V/Users/dcooke/Library/Mobile Documents/com~apple~CloudDocs/genome informatics/./presentation_1.tex
p17
aV/Users/danielcooke/Library/Mobile Documents/com~apple~CloudDocs/genome informatics/./presentation_1.tex
p18
aV/Users/danielcooke/Library/Mobile Documents/com~apple~CloudDocs/genome informatics/presentation_1.tex
p19
aS'presentation_1.tex'
p20
aV/Users/dcooke/Library/Mobile Documents/com~apple~CloudDocs/genome informatics/presentation_1.tex
p21
atp22
Rp23
sVsynctex
p24
I01
s.